Certificate:
    Data:
        Version: 3 (0x2)
        Serial Number:
            ac:c0:60:98:d5:b4:b5:19
        Signature Algorithm: sha1WithRSAEncryption
        Issuer: C=US, ST=California, O=Google, OU=Chrome OS, CN=OpenSSL Test CA/emailAddress=security@chromium.org
        Validity
            Not Before: May 11 17:25:36 2012 GMT
            Not After : Jan  8 17:25:36 2112 GMT
        Subject: C=US, ST=California, L=Mountain View, O=Google, OU=Chrome OS, CN=OpenSSL Test Certificate/emailAddress=security@chromium.org
        Subject Public Key Info:
            Public Key Algorithm: rsaEncryption
            RSA Public Key: (1024 bit)
                Modulus (1024 bit):
                    00:c4:e5:64:01:4e:00:8d:40:e4:7b:b3:05:08:ce:
                    15:93:5e:04:e8:d2:84:d1:fe:a9:ab:9b:44:92:57:
                    8b:7d:12:23:55:19:33:a4:33:cb:4d:01:0a:64:91:
                    ab:0d:4f:90:6a:e6:ea:01:51:2b:2e:10:3d:1e:86:
                    a3:0d:3d:b0:94:d0:36:36:52:36:b4:7a:d3:05:20:
                    83:70:ff:ef:ff:45:de:91:0b:73:0a:da:d2:93:50:
                    b5:10:70:8c:dd:21:3e:8c:23:16:d1:65:e9:d7:6d:
                    3d:04:53:5f:19:0d:90:f2:9c:ba:d4:1d:a9:ff:ea:
                    50:71:57:d2:44:33:fc:d1:59
                Exponent: 65537 (0x10001)
        X509v3 extensions:
            X509v3 Basic Constraints: 
                CA:FALSE
            Netscape Comment: 
                OpenSSL Generated Certificate
            X509v3 Subject Key Identifier: 
                FF:B1:9E:B2:ED:62:40:F3:58:6B:2D:9C:05:FA:EE:86:91:39:26:32
            X509v3 Authority Key Identifier: 
                keyid:EC:CB:48:85:6F:F6:87:56:D9:69:3A:7E:F6:34:AF:AB:77:40:02:1B

    Signature Algorithm: sha1WithRSAEncryption
        06:0a:af:c7:66:21:37:7c:a9:83:1a:68:e6:d1:a6:83:df:b5:
        94:94:bf:27:25:d7:7d:26:5f:51:b0:4e:46:5b:d9:b4:67:ea:
        e0:86:74:38:2d:db:31:97:23:30:de:2c:86:f3:de:3b:9c:d8:
        3e:fd:7f:18:a1:71:1e:3b:9d:4d:c8:77:e0:da:90:23:4c:6d:
        c2:9f:56:5d:a6:d5:0d:f6:a2:af:55:06:5c:ba:1b:bc:3d:0c:
        ee:db:99:64:46:5a:6d:9e:09:81:f4:51:ff:5d:b9:52:85:ce:
        2e:44:29:01:26:79:c8:5e:38:3b:29:03:67:d0:cb:11:f2:a5:
        f2:21
-----BEGIN CERTIFICATE-----
MIIDLDCCApWgAwIBAgIJAKzAYJjVtLUZMA0GCSqGSIb3DQEBBQUAMIGHMQswCQYD
VQQGEwJVUzETMBEGA1UECBMKQ2FsaWZvcm5pYTEPMA0GA1UEChMGR29vZ2xlMRIw
EAYDVQQLEwlDaHJvbWUgT1MxGDAWBgNVBAMTD09wZW5TU0wgVGVzdCBDQTEkMCIG
CSqGSIb3DQEJARYVc2VjdXJpdHlAY2hyb21pdW0ub3JnMCAXDTEyMDUxMTE3MjUz
NloYDzIxMTIwMTA4MTcyNTM2WjCBqDELMAkGA1UEBhMCVVMxEzARBgNVBAgTCkNh
bGlmb3JuaWExFjAUBgNVBAcTDU1vdW50YWluIFZpZXcxDzANBgNVBAoTBkdvb2ds
ZTESMBAGA1UECxMJQ2hyb21lIE9TMSEwHwYDVQQDExhPcGVuU1NMIFRlc3QgQ2Vy
dGlmaWNhdGUxJDAiBgkqhkiG9w0BCQEWFXNlY3VyaXR5QGNocm9taXVtLm9yZzCB
nzANBgkqhkiG9w0BAQEFAAOBjQAwgYkCgYEAxOVkAU4AjUDke7MFCM4Vk14E6NKE
0f6pq5tEkleLfRIjVRkzpDPLTQEKZJGrDU+QaubqAVErLhA9HoajDT2wlNA2NlI2
tHrTBSCDcP/v/0XekQtzCtrSk1C1EHCM3SE+jCMW0WXp1209BFNfGQ2Q8py61B2p
/+pQcVfSRDP80VkCAwEAAaN7MHkwCQYDVR0TBAIwADAsBglghkgBhvhCAQ0EHxYd
T3BlblNTTCBHZW5lcmF0ZWQgQ2VydGlmaWNhdGUwHQYDVR0OBBYEFP+xnrLtYkDz
WGstnAX67oaROSYyMB8GA1UdIwQYMBaAFOzLSIVv9odW2Wk6fvY0r6t3QAIbMA0G
CSqGSIb3DQEBBQUAA4GBAAYKr8dmITd8qYMaaObRpoPftZSUvycl130mX1GwTkZb
2bRn6uCGdDgt2zGXIzDeLIbz3juc2D79fxihcR47nU3Id+DakCNMbcKfVl2m1Q32
oq9VBly6G7w9DO7bmWRGWm2eCYH0Uf9duVKFzi5EKQEmecheODspA2fQyxHypfIh
-----END CERTIFICATE-----
