Certificate:
    Data:
        Version: 3 (0x2)
        Serial Number:
            fe:88:c9:c6:8c:5e:5a:ac
        Signature Algorithm: sha1WithRSAEncryption
        Issuer: C=US, ST=California, O=Google Inc, OU=Chrome OS, CN=OpenSSL Test CA/emailAddress=security@chromium.org
        Validity
            Not Before: May 17 19:45:22 2012 GMT
            Not After : Jan 14 19:45:22 2112 GMT
        Subject: C=US, ST=California, L=Mountain View, O=Google Inc, OU=Chrome OS, CN=127.0.0.1/emailAddress=security@chromium.org
        Subject Public Key Info:
            Public Key Algorithm: rsaEncryption
            RSA Public Key: (1024 bit)
                Modulus (1024 bit):
                    00:b9:6f:1c:f2:bc:d2:45:0e:6c:93:84:81:a8:16:
                    86:64:37:7a:e5:40:1f:10:a1:1f:34:ad:2d:6e:f2:
                    92:f2:a9:6e:55:93:60:34:a4:d3:af:73:13:eb:50:
                    70:14:4e:05:a1:8a:4a:b3:ca:6c:f8:6b:85:e8:2f:
                    16:ad:e7:71:ff:b7:f5:e6:45:8c:19:f4:65:4d:66:
                    87:33:43:89:da:5b:1b:4f:c8:fa:88:06:8b:0c:2e:
                    75:ae:e8:51:d4:54:ed:65:4d:db:e1:0b:a3:e3:c3:
                    68:b5:4b:d4:6a:dd:d3:2c:00:d5:35:20:44:78:35:
                    1f:17:33:eb:fa:a8:18:35:5d
                Exponent: 65537 (0x10001)
        X509v3 extensions:
            X509v3 Basic Constraints: 
                CA:FALSE
            Netscape Comment: 
                OpenSSL Generated Certificate
            X509v3 Subject Key Identifier: 
                F9:B8:AA:CB:9B:5B:44:69:54:34:BB:04:B6:39:B2:EE:FD:5E:62:AA
            X509v3 Authority Key Identifier: 
                keyid:0B:41:3C:F3:D9:83:ED:B9:F6:7D:77:04:B4:0D:C7:BD:48:A6:57:ED

    Signature Algorithm: sha1WithRSAEncryption
        d9:f2:71:a4:6c:03:6e:75:05:e5:9d:e6:bd:9f:35:fe:99:3c:
        7d:54:1d:26:f5:79:53:dd:c4:03:6f:55:13:54:9a:14:0e:52:
        e6:a6:12:cc:fd:54:7b:43:17:f9:1a:8c:2c:a8:e7:1f:e1:3a:
        c8:4a:28:fa:46:03:f6:bc:da:82:7b:ce:45:e7:db:25:e3:3d:
        d9:28:87:80:73:de:4a:6f:05:d6:74:2d:19:c9:63:a7:c8:b3:
        2c:19:5c:2a:03:c7:c1:02:ca:c4:42:e6:6d:2f:f1:be:de:1c:
        c8:76:8b:48:8c:b9:d2:52:eb:74:97:8a:b5:78:ea:ab:83:db:
        1f:76
-----BEGIN CERTIFICATE-----
MIIDJTCCAo6gAwIBAgIJAP6IycaMXlqsMA0GCSqGSIb3DQEBBQUAMIGLMQswCQYD
VQQGEwJVUzETMBEGA1UECBMKQ2FsaWZvcm5pYTETMBEGA1UEChMKR29vZ2xlIElu
YzESMBAGA1UECxMJQ2hyb21lIE9TMRgwFgYDVQQDEw9PcGVuU1NMIFRlc3QgQ0Ex
JDAiBgkqhkiG9w0BCQEWFXNlY3VyaXR5QGNocm9taXVtLm9yZzAgFw0xMjA1MTcx
OTQ1MjJaGA8yMTEyMDExNDE5NDUyMlowgZ0xCzAJBgNVBAYTAlVTMRMwEQYDVQQI
EwpDYWxpZm9ybmlhMRYwFAYDVQQHEw1Nb3VudGFpbiBWaWV3MRMwEQYDVQQKEwpH
b29nbGUgSW5jMRIwEAYDVQQLEwlDaHJvbWUgT1MxEjAQBgNVBAMTCTEyNy4wLjAu
MTEkMCIGCSqGSIb3DQEJARYVc2VjdXJpdHlAY2hyb21pdW0ub3JnMIGfMA0GCSqG
SIb3DQEBAQUAA4GNADCBiQKBgQC5bxzyvNJFDmyThIGoFoZkN3rlQB8QoR80rS1u
8pLyqW5Vk2A0pNOvcxPrUHAUTgWhikqzymz4a4XoLxat53H/t/XmRYwZ9GVNZocz
Q4naWxtPyPqIBosMLnWu6FHUVO1lTdvhC6Pjw2i1S9Rq3dMsANU1IER4NR8XM+v6
qBg1XQIDAQABo3sweTAJBgNVHRMEAjAAMCwGCWCGSAGG+EIBDQQfFh1PcGVuU1NM
IEdlbmVyYXRlZCBDZXJ0aWZpY2F0ZTAdBgNVHQ4EFgQU+biqy5tbRGlUNLsEtjmy
7v1eYqowHwYDVR0jBBgwFoAUC0E889mD7bn2fXcEtA3HvUimV+0wDQYJKoZIhvcN
AQEFBQADgYEA2fJxpGwDbnUF5Z3mvZ81/pk8fVQdJvV5U93EA29VE1SaFA5S5qYS
zP1Ue0MX+RqMLKjnH+E6yEoo+kYD9rzagnvORefbJeM92SiHgHPeSm8F1nQtGclj
p8izLBlcKgPHwQLKxELmbS/xvt4cyHaLSIy50lLrdJeKtXjqq4PbH3Y=
-----END CERTIFICATE-----
