-----BEGIN CERTIFICATE-----
MIIEJTCCAw2gAwIBAgIJAIyWCjpFJYdnMA0GCSqGSIb3DQEBBQUAMIGoMQswCQYD
VQQGEwJVUzELMAkGA1UECAwCQ0ExFjAUBgNVBAcMDU1vdW50YWluIFZpZXcxFDAS
BgNVBAoMC0dvb2dsZSBJbmMuMR4wHAYDVQQLDBVBbmRyb2lkIFNlY3VyaXR5IFRl
YW0xPjA8BgNVBAMMNUFuZHJvaWQgQ1RTIHRlc3QgZm9yIE9wZW5TU0wgSGVhcnRi
bGVlZCB2dWxuZXJhYmlsaXR5MB4XDTE0MDQxNDE5MjExNFoXDTI0MDQxMTE5MjEx
NFowgagxCzAJBgNVBAYTAlVTMQswCQYDVQQIDAJDQTEWMBQGA1UEBwwNTW91bnRh
aW4gVmlldzEUMBIGA1UECgwLR29vZ2xlIEluYy4xHjAcBgNVBAsMFUFuZHJvaWQg
U2VjdXJpdHkgVGVhbTE+MDwGA1UEAww1QW5kcm9pZCBDVFMgdGVzdCBmb3IgT3Bl
blNTTCBIZWFydGJsZWVkIHZ1bG5lcmFiaWxpdHkwggEiMA0GCSqGSIb3DQEBAQUA
A4IBDwAwggEKAoIBAQC3hfx9exE0EGokpMyNj6CAaSAdYL5bCCafZwpr5/U9GnKC
5i5spopmqaQKUj3KsaLEBs9k1LsYqgVGeobOb/IonYrnNsRwqBawGLhhksz0/R5H
2lOYDibsHd8igJkwWCxhhQLnT/h62x67B9/2mduV3nHcjjQ/+g4umVySKcoO79+4
5rX4dX/dX3vrfKE5ootDLvTycavAPSUfCKlBG4+DQYI0Q2bfjLWSHYdhFwkCTaYs
uTJPdDfzD8gRd/2egjYE/sNoKiNb3NiyHynZ849VDB1H/Y9ojO/3wAWpcDnP+9b9
JDq4eszjYrmCc0PiDWXBMbqpCei4jaJLmUDymCRXAgMBAAGjUDBOMB0GA1UdDgQW
BBR8Zq0HoE1D2c6/MLtWRXI2JWUcqjAfBgNVHSMEGDAWgBR8Zq0HoE1D2c6/MLtW
RXI2JWUcqjAMBgNVHRMEBTADAQH/MA0GCSqGSIb3DQEBBQUAA4IBAQB7ceFMrL8I
4why5v2M272EAay2o0AdKsZFlUpM3qJ3XvosLqcKEu9NVdVxiI4QJOh5Rgm7e48e
7WXgDcZM5F6/1e8X2PjgtbhwCpq1yTtIEhMLpu0IbVsNfvIT/IemfGAQqWBjZByE
jUoTW2AeuA7ZpzzmrNI+98Y2MocX9LcveK7Fnfsb7Y8LKVOvnRZ34VzC+py+w9p2
K8tOZU22mIBdZtdXe1cEdb5FszU8XMp7nzgZn5QDDWIoipNiL9m226kwEPf3EoXz
bcNhn6KrPah86kVwpeOsX2fM4xHUg7Zv2IcX66r9WzchyB7HrDyTjfzDQRt1fJCO
s0xyq4f1EHH2
-----END CERTIFICATE-----
Certificate:
    Data:
        Version: 3 (0x2)
        Serial Number:
            8c:96:0a:3a:45:25:87:67
    Signature Algorithm: sha1WithRSAEncryption
        Issuer: C=US, ST=CA, L=Mountain View, O=Google Inc., OU=Android Security Team, CN=Android CTS test for OpenSSL Heartbleed vulnerability
        Validity
            Not Before: Apr 14 19:21:14 2014 GMT
            Not After : Apr 11 19:21:14 2024 GMT
        Subject: C=US, ST=CA, L=Mountain View, O=Google Inc., OU=Android Security Team, CN=Android CTS test for OpenSSL Heartbleed vulnerability
        Subject Public Key Info:
            Public Key Algorithm: rsaEncryption
                Public-Key: (2048 bit)
                Modulus:
                    00:b7:85:fc:7d:7b:11:34:10:6a:24:a4:cc:8d:8f:
                    a0:80:69:20:1d:60:be:5b:08:26:9f:67:0a:6b:e7:
                    f5:3d:1a:72:82:e6:2e:6c:a6:8a:66:a9:a4:0a:52:
                    3d:ca:b1:a2:c4:06:cf:64:d4:bb:18:aa:05:46:7a:
                    86:ce:6f:f2:28:9d:8a:e7:36:c4:70:a8:16:b0:18:
                    b8:61:92:cc:f4:fd:1e:47:da:53:98:0e:26:ec:1d:
                    df:22:80:99:30:58:2c:61:85:02:e7:4f:f8:7a:db:
                    1e:bb:07:df:f6:99:db:95:de:71:dc:8e:34:3f:fa:
                    0e:2e:99:5c:92:29:ca:0e:ef:df:b8:e6:b5:f8:75:
                    7f:dd:5f:7b:eb:7c:a1:39:a2:8b:43:2e:f4:f2:71:
                    ab:c0:3d:25:1f:08:a9:41:1b:8f:83:41:82:34:43:
                    66:df:8c:b5:92:1d:87:61:17:09:02:4d:a6:2c:b9:
                    32:4f:74:37:f3:0f:c8:11:77:fd:9e:82:36:04:fe:
                    c3:68:2a:23:5b:dc:d8:b2:1f:29:d9:f3:8f:55:0c:
                    1d:47:fd:8f:68:8c:ef:f7:c0:05:a9:70:39:cf:fb:
                    d6:fd:24:3a:b8:7a:cc:e3:62:b9:82:73:43:e2:0d:
                    65:c1:31:ba:a9:09:e8:b8:8d:a2:4b:99:40:f2:98:
                    24:57
                Exponent: 65537 (0x10001)
        X509v3 extensions:
            X509v3 Subject Key Identifier: 
                7C:66:AD:07:A0:4D:43:D9:CE:BF:30:BB:56:45:72:36:25:65:1C:AA
            X509v3 Authority Key Identifier: 
                keyid:7C:66:AD:07:A0:4D:43:D9:CE:BF:30:BB:56:45:72:36:25:65:1C:AA

            X509v3 Basic Constraints: 
                CA:TRUE
    Signature Algorithm: sha1WithRSAEncryption
         7b:71:e1:4c:ac:bf:08:e3:08:72:e6:fd:8c:db:bd:84:01:ac:
         b6:a3:40:1d:2a:c6:45:95:4a:4c:de:a2:77:5e:fa:2c:2e:a7:
         0a:12:ef:4d:55:d5:71:88:8e:10:24:e8:79:46:09:bb:7b:8f:
         1e:ed:65:e0:0d:c6:4c:e4:5e:bf:d5:ef:17:d8:f8:e0:b5:b8:
         70:0a:9a:b5:c9:3b:48:12:13:0b:a6:ed:08:6d:5b:0d:7e:f2:
         13:fc:87:a6:7c:60:10:a9:60:63:64:1c:84:8d:4a:13:5b:60:
         1e:b8:0e:d9:a7:3c:e6:ac:d2:3e:f7:c6:36:32:87:17:f4:b7:
         2f:78:ae:c5:9d:fb:1b:ed:8f:0b:29:53:af:9d:16:77:e1:5c:
         c2:fa:9c:be:c3:da:76:2b:cb:4e:65:4d:b6:98:80:5d:66:d7:
         57:7b:57:04:75:be:45:b3:35:3c:5c:ca:7b:9f:38:19:9f:94:
         03:0d:62:28:8a:93:62:2f:d9:b6:db:a9:30:10:f7:f7:12:85:
         f3:6d:c3:61:9f:a2:ab:3d:a8:7c:ea:45:70:a5:e3:ac:5f:67:
         cc:e3:11:d4:83:b6:6f:d8:87:17:eb:aa:fd:5b:37:21:c8:1e:
         c7:ac:3c:93:8d:fc:c3:41:1b:75:7c:90:8e:b3:4c:72:ab:87:
         f5:10:71:f6
SHA1 Fingerprint=01:E1:C6:46:02:BE:8F:F7:F6:82:22:C8:1C:AE:A2:85:0D:3E:D0:98
