Certificate:
    Data:
        Version: 3 (0x2)
        Serial Number:
            fe:88:c9:c6:8c:5e:5a:aa
        Signature Algorithm: sha1WithRSAEncryption
        Issuer: C=US, ST=California, O=Google Inc, OU=Chrome OS, CN=OpenSSL Test CA/emailAddress=security@chromium.org
        Validity
            Not Before: May 17 19:30:21 2012 GMT
            Not After : Apr 23 19:30:21 2112 GMT
        Subject: C=US, ST=California, O=Google Inc, OU=Chrome OS, CN=OpenSSL Test CA/emailAddress=security@chromium.org
        Subject Public Key Info:
            Public Key Algorithm: rsaEncryption
            RSA Public Key: (1024 bit)
                Modulus (1024 bit):
                    00:db:fa:20:da:fd:7e:97:36:58:f1:88:eb:e9:97:
                    32:a7:80:85:7a:37:c2:9e:f4:10:a7:ae:09:8a:00:
                    d9:5d:cd:c1:d5:35:75:6b:23:74:aa:40:e4:5e:8b:
                    2f:14:99:66:41:9a:8e:93:0c:15:d6:72:57:e2:5b:
                    5f:41:e2:a9:52:10:68:85:d9:fa:c3:c4:bc:5e:2f:
                    2c:77:ff:3c:37:dd:b9:31:50:4c:93:42:48:5f:6c:
                    de:f9:87:99:4f:af:0d:8b:c8:66:8a:4e:74:b1:3c:
                    28:92:c0:c7:dc:87:0d:af:9b:d9:59:c2:8d:c8:87:
                    fe:a7:11:96:db:99:d2:f4:2d
                Exponent: 65537 (0x10001)
        X509v3 extensions:
            X509v3 Subject Key Identifier: 
                0B:41:3C:F3:D9:83:ED:B9:F6:7D:77:04:B4:0D:C7:BD:48:A6:57:ED
            X509v3 Authority Key Identifier: 
                keyid:0B:41:3C:F3:D9:83:ED:B9:F6:7D:77:04:B4:0D:C7:BD:48:A6:57:ED
                DirName:/C=US/ST=California/O=Google Inc/OU=Chrome OS/CN=OpenSSL Test CA/emailAddress=security@chromium.org
                serial:FE:88:C9:C6:8C:5E:5A:AA

            X509v3 Basic Constraints: 
                CA:TRUE
    Signature Algorithm: sha1WithRSAEncryption
        a5:ce:ee:ac:55:f3:3e:9d:f8:87:97:6a:47:29:5e:be:22:77:
        e4:b4:6b:d0:03:5f:24:6c:cf:63:23:e3:0d:0e:b4:b0:0f:d3:
        fe:c7:70:0b:00:e6:d0:be:5a:94:02:af:86:91:a4:0c:99:36:
        af:db:c7:bd:db:57:43:8a:2e:7b:0e:a7:df:fc:04:4f:1a:8b:
        9d:a6:88:c8:94:ed:5f:d4:41:73:fa:e3:ca:6b:60:ba:05:54:
        e1:0b:93:09:18:eb:42:fe:44:c7:55:67:6a:76:8d:3a:a9:31:
        e0:56:e9:38:24:4d:64:59:d7:44:70:00:8e:2e:fd:39:aa:05:
        b2:a4
-----BEGIN CERTIFICATE-----
MIIDjDCCAvWgAwIBAgIJAP6IycaMXlqqMA0GCSqGSIb3DQEBBQUAMIGLMQswCQYD
VQQGEwJVUzETMBEGA1UECBMKQ2FsaWZvcm5pYTETMBEGA1UEChMKR29vZ2xlIElu
YzESMBAGA1UECxMJQ2hyb21lIE9TMRgwFgYDVQQDEw9PcGVuU1NMIFRlc3QgQ0Ex
JDAiBgkqhkiG9w0BCQEWFXNlY3VyaXR5QGNocm9taXVtLm9yZzAgFw0xMjA1MTcx
OTMwMjFaGA8yMTEyMDQyMzE5MzAyMVowgYsxCzAJBgNVBAYTAlVTMRMwEQYDVQQI
EwpDYWxpZm9ybmlhMRMwEQYDVQQKEwpHb29nbGUgSW5jMRIwEAYDVQQLEwlDaHJv
bWUgT1MxGDAWBgNVBAMTD09wZW5TU0wgVGVzdCBDQTEkMCIGCSqGSIb3DQEJARYV
c2VjdXJpdHlAY2hyb21pdW0ub3JnMIGfMA0GCSqGSIb3DQEBAQUAA4GNADCBiQKB
gQDb+iDa/X6XNljxiOvplzKngIV6N8Ke9BCnrgmKANldzcHVNXVrI3SqQOReiy8U
mWZBmo6TDBXWclfiW19B4qlSEGiF2frDxLxeLyx3/zw33bkxUEyTQkhfbN75h5lP
rw2LyGaKTnSxPCiSwMfchw2vm9lZwo3Ih/6nEZbbmdL0LQIDAQABo4HzMIHwMB0G
A1UdDgQWBBQLQTzz2YPtufZ9dwS0Dce9SKZX7TCBwAYDVR0jBIG4MIG1gBQLQTzz
2YPtufZ9dwS0Dce9SKZX7aGBkaSBjjCBizELMAkGA1UEBhMCVVMxEzARBgNVBAgT
CkNhbGlmb3JuaWExEzARBgNVBAoTCkdvb2dsZSBJbmMxEjAQBgNVBAsTCUNocm9t
ZSBPUzEYMBYGA1UEAxMPT3BlblNTTCBUZXN0IENBMSQwIgYJKoZIhvcNAQkBFhVz
ZWN1cml0eUBjaHJvbWl1bS5vcmeCCQD+iMnGjF5aqjAMBgNVHRMEBTADAQH/MA0G
CSqGSIb3DQEBBQUAA4GBAKXO7qxV8z6d+IeXakcpXr4id+S0a9ADXyRsz2Mj4w0O
tLAP0/7HcAsA5tC+WpQCr4aRpAyZNq/bx73bV0OKLnsOp9/8BE8ai52miMiU7V/U
QXP648prYLoFVOELkwkY60L+RMdVZ2p2jTqpMeBW6TgkTWRZ10RwAI4u/TmqBbKk
-----END CERTIFICATE-----
